target datalayout = "e-m:e-p270:32:32-p271:32:32-p272:64:64-i64:64-i128:128-f80:128-n8:16:32:64-S128"
target triple = "x86_64-pc-linux-gnu"

%struct.partition_info = type { ptr, ptr, ptr, ptr, ptr, ptr, ptr, i16, i32, i64, i32, ptr, ptr, i32, i32, ptr, ptr, i32, i32, i64, i32, i16, i32, i32, ptr, ptr, ptr, ptr, i16, i16, i16, i16, ptr, i16, i16, i32, i16, i32, i32, ptr }

; Function Attrs: nounwind uwtable
define dso_local void @slurm_free_partition_info_members(ptr noundef %0) #0 {
  %2 = alloca ptr, align 8
  store ptr %0, ptr %2, align 8
  %3 = load ptr, ptr %2, align 8
  %4 = icmp ne ptr %3, null
  br i1 %4, label %5, label %51

5:                                                ; preds = %1
  %6 = load ptr, ptr %2, align 8
  %7 = getelementptr inbounds nuw %struct.partition_info, ptr %6, i32 0, i32 0
  call void @slurm_xfree(ptr noundef %7)
  %8 = load ptr, ptr %2, align 8
  %9 = getelementptr inbounds nuw %struct.partition_info, ptr %8, i32 0, i32 1
  call void @slurm_xfree(ptr noundef %9)
  %10 = load ptr, ptr %2, align 8
  %11 = getelementptr inbounds nuw %struct.partition_info, ptr %10, i32 0, i32 2
  call void @slurm_xfree(ptr noundef %11)
  %12 = load ptr, ptr %2, align 8
  %13 = getelementptr inbounds nuw %struct.partition_info, ptr %12, i32 0, i32 3
  call void @slurm_xfree(ptr noundef %13)
  %14 = load ptr, ptr %2, align 8
  %15 = getelementptr inbounds nuw %struct.partition_info, ptr %14, i32 0, i32 4
  call void @slurm_xfree(ptr noundef %15)
  %16 = load ptr, ptr %2, align 8
  %17 = getelementptr inbounds nuw %struct.partition_info, ptr %16, i32 0, i32 5
  call void @slurm_xfree(ptr noundef %17)
  %18 = load ptr, ptr %2, align 8
  %19 = getelementptr inbounds nuw %struct.partition_info, ptr %18, i32 0, i32 6
  call void @slurm_xfree(ptr noundef %19)
  %20 = load ptr, ptr %2, align 8
  %21 = getelementptr inbounds nuw %struct.partition_info, ptr %20, i32 0, i32 11
  call void @slurm_xfree(ptr noundef %21)
  %22 = load ptr, ptr %2, align 8
  %23 = getelementptr inbounds nuw %struct.partition_info, ptr %22, i32 0, i32 12
  call void @slurm_xfree(ptr noundef %23)
  br label %24

24:                                               ; preds = %5
  %25 = load ptr, ptr %2, align 8
  %26 = getelementptr inbounds nuw %struct.partition_info, ptr %25, i32 0, i32 15
  %27 = load ptr, ptr %26, align 8
  %28 = icmp ne ptr %27, null
  br i1 %28, label %29, label %33

29:                                               ; preds = %24
  %30 = load ptr, ptr %2, align 8
  %31 = getelementptr inbounds nuw %struct.partition_info, ptr %30, i32 0, i32 15
  %32 = load ptr, ptr %31, align 8
  call void @list_destroy(ptr noundef %32)
  br label %33

33:                                               ; preds = %29, %24
  %34 = load ptr, ptr %2, align 8
  %35 = getelementptr inbounds nuw %struct.partition_info, ptr %34, i32 0, i32 15
  store ptr null, ptr %35, align 8
  br label %36

36:                                               ; preds = %33
  %37 = load ptr, ptr %2, align 8
  %38 = getelementptr inbounds nuw %struct.partition_info, ptr %37, i32 0, i32 16
  call void @slurm_xfree(ptr noundef %38)
  %39 = load ptr, ptr %2, align 8
  %40 = getelementptr inbounds nuw %struct.partition_info, ptr %39, i32 0, i32 24
  call void @slurm_xfree(ptr noundef %40)
  %41 = load ptr, ptr %2, align 8
  %42 = getelementptr inbounds nuw %struct.partition_info, ptr %41, i32 0, i32 26
  call void @slurm_xfree(ptr noundef %42)
  %43 = load ptr, ptr %2, align 8
  %44 = getelementptr inbounds nuw %struct.partition_info, ptr %43, i32 0, i32 27
  call void @slurm_xfree(ptr noundef %44)
  %45 = load ptr, ptr %2, align 8
  %46 = getelementptr inbounds nuw %struct.partition_info, ptr %45, i32 0, i32 25
  call void @slurm_xfree(ptr noundef %46)
  %47 = load ptr, ptr %2, align 8
  %48 = getelementptr inbounds nuw %struct.partition_info, ptr %47, i32 0, i32 32
  call void @slurm_xfree(ptr noundef %48)
  %49 = load ptr, ptr %2, align 8
  %50 = getelementptr inbounds nuw %struct.partition_info, ptr %49, i32 0, i32 39
  call void @slurm_xfree(ptr noundef %50)
  br label %51

51:                                               ; preds = %36, %1
  ret void
}