; Function Attrs: nounwind uwtable
define dso_local void @slurm_free_partition_info_members(ptr noundef %0) local_unnamed_addr #1 {
  %.not = icmp eq ptr %0, null
  br i1 %.not, label %22, label %2

2:                                                ; preds = %1
  tail call void @slurm_xfree(ptr noundef nonnull %0) #24
  %3 = getelementptr inbounds nuw i8, ptr %0, i64 8
  tail call void @slurm_xfree(ptr noundef nonnull %3) #24
  %4 = getelementptr inbounds nuw i8, ptr %0, i64 16
  tail call void @slurm_xfree(ptr noundef nonnull %4) #24
  %5 = getelementptr inbounds nuw i8, ptr %0, i64 24
  tail call void @slurm_xfree(ptr noundef nonnull %5) #24
  %6 = getelementptr inbounds nuw i8, ptr %0, i64 32
  tail call void @slurm_xfree(ptr noundef nonnull %6) #24
  %7 = getelementptr inbounds nuw i8, ptr %0, i64 40
  tail call void @slurm_xfree(ptr noundef nonnull %7) #24
  %8 = getelementptr inbounds nuw i8, ptr %0, i64 48
  tail call void @slurm_xfree(ptr noundef nonnull %8) #24
  %9 = getelementptr inbounds nuw i8, ptr %0, i64 80
  tail call void @slurm_xfree(ptr noundef nonnull %9) #24
  %10 = getelementptr inbounds nuw i8, ptr %0, i64 88
  tail call void @slurm_xfree(ptr noundef nonnull %10) #24
  %11 = getelementptr inbounds nuw i8, ptr %0, i64 104
  %12 = load ptr, ptr %11, align 8
  %.not21 = icmp eq ptr %12, null
  br i1 %.not21, label %14, label %13

13:                                               ; preds = %2
  tail call void @list_destroy(ptr noundef nonnull %12) #24
  br label %14

14:                                               ; preds = %13, %2
  store ptr null, ptr %11, align 8
  %15 = getelementptr inbounds nuw i8, ptr %0, i64 112
  tail call void @slurm_xfree(ptr noundef nonnull %15) #24
  %16 = getelementptr inbounds nuw i8, ptr %0, i64 152
  tail call void @slurm_xfree(ptr noundef nonnull %16) #24
  %17 = getelementptr inbounds nuw i8, ptr %0, i64 168
  tail call void @slurm_xfree(ptr noundef nonnull %17) #24
  %18 = getelementptr inbounds nuw i8, ptr %0, i64 176
  tail call void @slurm_xfree(ptr noundef nonnull %18) #24
  %19 = getelementptr inbounds nuw i8, ptr %0, i64 160
  tail call void @slurm_xfree(ptr noundef nonnull %19) #24
  %20 = getelementptr inbounds nuw i8, ptr %0, i64 192
  tail call void @slurm_xfree(ptr noundef nonnull %20) #24
  %21 = getelementptr inbounds nuw i8, ptr %0, i64 224
  tail call void @slurm_xfree(ptr noundef nonnull %21) #24
  br label %22

22:                                               ; preds = %14, %1
  ret void
}